target datalayout = "e-m:e-p270:32:32-p271:32:32-p272:64:64-i64:64-i128:128-f80:128-n8:16:32:64-S128"
target triple = "x86_64-unknown-linux-gnu"

%"struct.google::protobuf::MessageLite::ClassData" = type <{ ptr, i32, i8, [3 x i8] }>

; Function Attrs: mustprogress uwtable
define noundef nonnull align 4 dereferenceable(4) ptr @_ZNK6google8protobuf11MessageLite16AccessCachedSizeEv(ptr noundef nonnull align 8 dereferenceable(16) %this) #4 align 2 {
entry:
  %this.addr = alloca ptr, align 8
  %data = alloca ptr, align 8
  store ptr %this, ptr %this.addr, align 8
  %this1 = load ptr, ptr %this.addr, align 8
  %vtable = load ptr, ptr %this1, align 8
  %vfn = getelementptr inbounds ptr, ptr %vtable, i64 8
  %0 = load ptr, ptr %vfn, align 8
  %call = call noundef ptr %0(ptr noundef nonnull align 8 dereferenceable(16) %this1)
  store ptr %call, ptr %data, align 8
  %1 = load ptr, ptr %data, align 8
  %cached_size_offset = getelementptr inbounds %"struct.google::protobuf::MessageLite::ClassData", ptr %1, i32 0, i32 1
  %2 = load i32, ptr %cached_size_offset, align 8
  %idx.ext = zext i32 %2 to i64
  %add.ptr = getelementptr inbounds i8, ptr %this1, i64 %idx.ext
  ret ptr %add.ptr
}