; Function Attrs: mustprogress uwtable
define noundef nonnull align 4 dereferenceable(4) ptr @_ZNK6google8protobuf11MessageLite16AccessCachedSizeEv(ptr noundef nonnull align 8 dereferenceable(16) %this) local_unnamed_addr #3 align 2 {
entry:
  %vtable = load ptr, ptr %this, align 8
  %vfn = getelementptr inbounds i8, ptr %vtable, i64 64
  %0 = load ptr, ptr %vfn, align 8
  %call = tail call noundef ptr %0(ptr noundef nonnull align 8 dereferenceable(16) %this)
  %cached_size_offset = getelementptr inbounds i8, ptr %call, i64 8
  %1 = load i32, ptr %cached_size_offset, align 8
  %idx.ext = zext i32 %1 to i64
  %add.ptr = getelementptr inbounds i8, ptr %this, i64 %idx.ext
  ret ptr %add.ptr
}